Certificate:
    Data:
        Version: 3 (0x2)
        Serial Number: 1 (0x1)
        Signature Algorithm: sha256WithRSAEncryption
        Issuer: CN=devcert
        Validity
            Not Before: Apr 11 23:02:22 2026 GMT
            Not After : Jul 14 23:02:22 2028 GMT
        Subject: CN=web.localhost
        Subject Public Key Info:
            Public Key Algorithm: rsaEncryption
                Public-Key: (2048 bit)
                Modulus:
                    00:a5:61:ca:84:21:e4:07:07:e9:bd:20:20:d3:e4:
                    1e:a5:53:a4:31:54:9c:04:d5:3e:d8:4a:d7:69:95:
                    f8:70:53:e8:ff:90:0b:23:0b:b9:12:47:b8:d9:58:
                    8d:43:bf:63:37:bb:47:94:bf:9b:0c:e5:16:0a:d7:
                    44:7b:11:04:d6:a5:4d:35:3f:cd:b0:45:3e:8e:0a:
                    1d:21:bf:aa:be:68:dc:eb:dc:06:31:34:f8:cd:a8:
                    e1:2a:99:ce:0a:0e:3f:e7:be:d3:d3:6c:44:dd:97:
                    71:22:3e:1f:19:13:b5:e4:cf:64:d5:4b:94:76:e7:
                    23:76:11:73:11:06:46:1d:bc:c2:ac:94:5d:7f:74:
                    76:f0:c8:1c:54:f1:09:40:49:7f:da:c4:b5:2c:25:
                    cd:dc:17:81:c3:ce:5d:72:63:d8:31:75:42:75:f1:
                    5f:25:b0:80:bb:1b:2e:b4:d3:a6:88:fc:fb:b6:fa:
                    01:92:85:51:e1:98:be:d0:d5:61:ec:87:e5:eb:0d:
                    61:f2:c1:c6:17:40:8a:82:7f:a3:d1:f4:58:c8:b4:
                    31:ab:09:19:2a:7b:4d:94:06:f3:30:08:0d:b5:82:
                    a2:a6:cd:bf:60:7e:f6:dd:0c:33:e0:e7:51:f6:2b:
                    64:10:52:93:6d:dc:d1:d9:66:d8:b6:31:80:32:1e:
                    ab:5b
                Exponent: 65537 (0x10001)
        X509v3 extensions:
            X509v3 Basic Constraints: critical
                CA:FALSE
            X509v3 Subject Key Identifier: 
                AB:98:D6:25:83:10:BA:C5:92:4C:52:07:2A:79:2B:E9:43:0B:B9:E3
            X509v3 Authority Key Identifier: 
                keyid:08:89:33:DC:71:3C:CE:DE:1F:23:61:56:7F:D9:72:67:C0:66:5B:26
                DirName:/CN=devcert
                serial:37:17:5D:69:EE:01:20:97:2E:A1:F4:96:C6:AC:8B:4E:78:2B:D2:9E
            X509v3 Key Usage: critical
                Digital Signature, Key Encipherment
            X509v3 Extended Key Usage: 
                TLS Web Server Authentication
            X509v3 Subject Alternative Name: 
                DNS:web.localhost, DNS:*.web.localhost, DNS:localhost, DNS:*.localhost
    Signature Algorithm: sha256WithRSAEncryption
    Signature Value:
        22:5f:19:44:9c:05:4a:1b:c4:85:3b:84:d3:2a:67:0f:d5:cf:
        83:b9:74:d7:6f:78:34:4b:46:ae:54:2f:bc:50:d5:fe:9a:f5:
        b3:37:36:0f:9c:a5:e3:c5:92:4f:5f:20:46:ba:56:ac:66:9b:
        58:8f:f0:70:02:82:86:96:fc:4c:81:10:21:9f:5a:fb:35:13:
        a2:52:e2:7b:4e:97:f4:4f:2b:13:2c:45:56:54:1a:d7:a9:4f:
        a6:02:16:c7:f5:92:ac:ee:16:e5:8d:25:de:04:eb:8f:04:a3:
        3c:e5:c5:6d:04:8f:f9:bc:d1:f3:12:80:11:50:2d:ce:f0:68:
        a6:df:01:36:63:7b:07:db:11:0b:e9:5e:2f:35:3d:60:b9:0b:
        53:bb:ce:f4:bd:10:38:19:f4:4e:e0:0b:24:56:11:03:57:43:
        ec:53:7b:b2:ad:be:3c:22:c1:be:cb:14:72:f9:cb:3c:6c:7e:
        f2:76:8a:70:fc:58:11:4f:80:89:22:fd:72:ff:64:09:40:d6:
        36:40:82:87:2f:71:aa:b6:1e:20:ce:3a:00:df:7c:fb:a0:b0:
        f7:14:03:a3:9e:15:06:5c:48:e2:bf:cc:ca:c3:3e:6d:c0:39:
        04:8f:ff:2e:c9:9d:2e:39:ed:ec:62:10:ea:4a:39:4e:2e:27:
        82:1c:d4:92
-----BEGIN CERTIFICATE-----
MIIDjTCCAnWgAwIBAgIBATANBgkqhkiG9w0BAQsFADASMRAwDgYDVQQDDAdkZXZj
ZXJ0MB4XDTI2MDQxMTIzMDIyMloXDTI4MDcxNDIzMDIyMlowGDEWMBQGA1UEAwwN
d2ViLmxvY2FsaG9zdDCCASIwDQYJKoZIhvcNAQEBBQADggEPADCCAQoCggEBAKVh
yoQh5AcH6b0gINPkHqVTpDFUnATVPthK12mV+HBT6P+QCyMLuRJHuNlYjUO/Yze7
R5S/mwzlFgrXRHsRBNalTTU/zbBFPo4KHSG/qr5o3OvcBjE0+M2o4SqZzgoOP+e+
09NsRN2XcSI+HxkTteTPZNVLlHbnI3YRcxEGRh28wqyUXX90dvDIHFTxCUBJf9rE
tSwlzdwXgcPOXXJj2DF1QnXxXyWwgLsbLrTTpoj8+7b6AZKFUeGYvtDVYeyH5esN
YfLBxhdAioJ/o9H0WMi0MasJGSp7TZQG8zAIDbWCoqbNv2B+9t0MM+DnUfYrZBBS
k23c0dlm2LYxgDIeq1sCAwEAAaOB5zCB5DAMBgNVHRMBAf8EAjAAMB0GA1UdDgQW
BBSrmNYlgxC6xZJMUgcqeSvpQwu54zBNBgNVHSMERjBEgBQIiTPccTzO3h8jYVZ/
2XJnwGZbJqEWpBQwEjEQMA4GA1UEAwwHZGV2Y2VydIIUNxddae4BIJcuofSWxqyL
Tngr0p4wDgYDVR0PAQH/BAQDAgWgMBMGA1UdJQQMMAoGCCsGAQUFBwMBMEEGA1Ud
EQQ6MDiCDXdlYi5sb2NhbGhvc3SCDyoud2ViLmxvY2FsaG9zdIIJbG9jYWxob3N0
ggsqLmxvY2FsaG9zdDANBgkqhkiG9w0BAQsFAAOCAQEAIl8ZRJwFShvEhTuE0ypn
D9XPg7l01294NEtGrlQvvFDV/pr1szc2D5yl48WST18gRrpWrGabWI/wcAKChpb8
TIEQIZ9a+zUTolLie06X9E8rEyxFVlQa16lPpgIWx/WSrO4W5Y0l3gTrjwSjPOXF
bQSP+bzR8xKAEVAtzvBopt8BNmN7B9sRC+leLzU9YLkLU7vO9L0QOBn0TuALJFYR
A1dD7FN7sq2+PCLBvssUcvnLPGx+8naKcPxYEU+AiSL9cv9kCUDWNkCChy9xqrYe
IM46AN98+6Cw9xQDo54VBlxI4r/MysM+bcA5BI//LsmdLjnt7GIQ6ko5Ti4nghzU
kg==
-----END CERTIFICATE-----
